target datalayout = "e-m:e-p270:32:32-p271:32:32-p272:64:64-i64:64-i128:128-f80:128-n8:16:32:64-S128"
target triple = "x86_64-pc-linux-gnu"

%"class.std::vector" = type { %"struct.std::_Vector_base" }
%"struct.std::_Vector_base" = type { %"struct.std::_Vector_base<int, std::allocator<int>>::_Vector_impl" }
%"struct.std::_Vector_base<int, std::allocator<int>>::_Vector_impl" = type { %"struct.std::_Vector_base<int, std::allocator<int>>::_Vector_impl_data" }
%"struct.std::_Vector_base<int, std::allocator<int>>::_Vector_impl_data" = type { ptr, ptr, ptr }
%"class.std::vector.1" = type { %"struct.std::_Vector_base.2" }
%"struct.std::_Vector_base.2" = type { %"struct.std::_Vector_base<float, std::allocator<float>>::_Vector_impl" }
%"struct.std::_Vector_base<float, std::allocator<float>>::_Vector_impl" = type { %"struct.std::_Vector_base<float, std::allocator<float>>::_Vector_impl_data" }
%"struct.std::_Vector_base<float, std::allocator<float>>::_Vector_impl_data" = type { ptr, ptr, ptr }
%struct.t_grpopts = type <{ i32, i32, i32, i32, i32, [4 x i8], ptr, ptr, ptr, ptr, ptr, ptr, ptr, ptr, ptr, ptr, i32, [4 x i8] }>
%struct.SimulationGroups = type { %"struct.gmx::EnumerationArray.115", %"class.std::vector.116", %"struct.gmx::EnumerationArray.121" }
%"struct.gmx::EnumerationArray.115" = type { [10 x %"class.std::vector"] }
%"class.std::vector.116" = type { %"struct.std::_Vector_base.117" }
%"struct.std::_Vector_base.117" = type { %"struct.std::_Vector_base<char **, std::allocator<char **>>::_Vector_impl" }
%"struct.std::_Vector_base<char **, std::allocator<char **>>::_Vector_impl" = type { %"struct.std::_Vector_base<char **, std::allocator<char **>>::_Vector_impl_data" }
%"struct.std::_Vector_base<char **, std::allocator<char **>>::_Vector_impl_data" = type { ptr, ptr, ptr }
%"struct.gmx::EnumerationArray.121" = type { [10 x %"class.std::vector.122"] }
%"class.std::vector.122" = type { %"struct.std::_Vector_base.123" }
%"struct.std::_Vector_base.123" = type { %"struct.std::_Vector_base<unsigned char, std::allocator<unsigned char>>::_Vector_impl" }
%"struct.std::_Vector_base<unsigned char, std::allocator<unsigned char>>::_Vector_impl" = type { %"struct.std::_Vector_base<unsigned char, std::allocator<unsigned char>>::_Vector_impl_data" }
%"struct.std::_Vector_base<unsigned char, std::allocator<unsigned char>>::_Vector_impl_data" = type { ptr, ptr, ptr }
%class.gmx_ekindata_t = type <{ %"class.std::vector.1", i32, float, %"class.std::vector.372", ptr, ptr, ptr, [3 x [3 x float]], [3 x [3 x float]], float, float, %"class.std::unique_ptr.377", %"class.std::vector.385", %struct.t_cos_acc, i8, [3 x i8], i32, [4 x i8] }>
%"class.std::vector.372" = type { %"struct.std::_Vector_base.373" }
%"struct.std::_Vector_base.373" = type { %"struct.std::_Vector_base<t_grp_tcstat, std::allocator<t_grp_tcstat>>::_Vector_impl" }
%"struct.std::_Vector_base<t_grp_tcstat, std::allocator<t_grp_tcstat>>::_Vector_impl" = type { %"struct.std::_Vector_base<t_grp_tcstat, std::allocator<t_grp_tcstat>>::_Vector_impl_data" }
%"struct.std::_Vector_base<t_grp_tcstat, std::allocator<t_grp_tcstat>>::_Vector_impl_data" = type { ptr, ptr, ptr }
%"class.std::unique_ptr.377" = type { %"struct.std::__uniq_ptr_data.378" }
%"struct.std::__uniq_ptr_data.378" = type { %"class.std::__uniq_ptr_impl.379" }
%"class.std::__uniq_ptr_impl.379" = type { %"class.std::tuple.380" }
%"class.std::tuple.380" = type { %"struct.std::_Tuple_impl.381" }
%"struct.std::_Tuple_impl.381" = type { %"struct.std::_Head_base.384" }
%"struct.std::_Head_base.384" = type { ptr }
%"class.std::vector.385" = type { %"struct.std::_Vector_base.386" }
%"struct.std::_Vector_base.386" = type { %"struct.std::_Vector_base<std::unique_ptr<SystemMomentum>, std::allocator<std::unique_ptr<SystemMomentum>>>::_Vector_impl" }
%"struct.std::_Vector_base<std::unique_ptr<SystemMomentum>, std::allocator<std::unique_ptr<SystemMomentum>>>::_Vector_impl" = type { %"struct.std::_Vector_base<std::unique_ptr<SystemMomentum>, std::allocator<std::unique_ptr<SystemMomentum>>>::_Vector_impl_data" }
%"struct.std::_Vector_base<std::unique_ptr<SystemMomentum>, std::allocator<std::unique_ptr<SystemMomentum>>>::_Vector_impl_data" = type { ptr, ptr, ptr }
%struct.t_cos_acc = type { float, float, float }

@.str.112 = private unnamed_addr constant [2 x i8] c"\0A\00", align 1
@.str.121 = private unnamed_addr constant [35 x i8] c"Current ref_t for group %s: %8.1f\0A\00", align 1

; Function Attrs: mustprogress nounwind uwtable
define linkonce_odr noundef nonnull align 4 dereferenceable(4) ptr @_ZNKSt6vectorIfSaIfEEixEm(ptr noundef nonnull align 8 dereferenceable(24) %0, i64 noundef %1) #1 comdat align 2 {
  %3 = alloca ptr, align 8
  %4 = alloca i64, align 8
  store ptr %0, ptr %3, align 8, !tbaa !260
  store i64 %1, ptr %4, align 8, !tbaa !277
  %5 = load ptr, ptr %3, align 8
  %6 = getelementptr inbounds nuw %"struct.std::_Vector_base.2", ptr %5, i32 0, i32 0
  %7 = getelementptr inbounds nuw %"struct.std::_Vector_base<float, std::allocator<float>>::_Vector_impl_data", ptr %6, i32 0, i32 0
  %8 = load ptr, ptr %7, align 8, !tbaa !346
  %9 = load i64, ptr %4, align 8, !tbaa !277
  %10 = getelementptr inbounds nuw float, ptr %8, i64 %9
  ret ptr %10
}

; Function Attrs: mustprogress nounwind uwtable
define linkonce_odr noundef float @_ZNK14gmx_ekindata_t27currentReferenceTemperatureEi(ptr noundef nonnull align 8 dereferenceable(212) %0, i32 noundef %1) #1 comdat align 2 {
  %3 = alloca ptr, align 8
  %4 = alloca i32, align 4
  store ptr %0, ptr %3, align 8, !tbaa !625
  store i32 %1, ptr %4, align 4, !tbaa !200
  %5 = load ptr, ptr %3, align 8
  %6 = getelementptr inbounds nuw %class.gmx_ekindata_t, ptr %5, i32 0, i32 0
  %7 = load i32, ptr %4, align 4, !tbaa !200
  %8 = sext i32 %7 to i64
  %9 = call noundef nonnull align 4 dereferenceable(4) ptr @_ZNKSt6vectorIfSaIfEEixEm(ptr noundef nonnull align 8 dereferenceable(24) %6, i64 noundef %8) #17
  %10 = load float, ptr %9, align 4, !tbaa !226
  ret float %10
}

; Function Attrs: mustprogress nounwind uwtable
define linkonce_odr noundef nonnull align 8 dereferenceable(8) ptr @_ZNKSt6vectorIPPcSaIS1_EEixEm(ptr noundef nonnull align 8 dereferenceable(24) %0, i64 noundef %1) #1 comdat align 2 {
  %3 = alloca ptr, align 8
  %4 = alloca i64, align 8
  store ptr %0, ptr %3, align 8, !tbaa !330
  store i64 %1, ptr %4, align 8, !tbaa !277
  %5 = load ptr, ptr %3, align 8
  %6 = getelementptr inbounds nuw %"struct.std::_Vector_base.117", ptr %5, i32 0, i32 0
  %7 = getelementptr inbounds nuw %"struct.std::_Vector_base<char **, std::allocator<char **>>::_Vector_impl_data", ptr %6, i32 0, i32 0
  %8 = load ptr, ptr %7, align 8, !tbaa !332
  %9 = load i64, ptr %4, align 8, !tbaa !277
  %10 = getelementptr inbounds nuw ptr, ptr %8, i64 %9
  ret ptr %10
}

; Function Attrs: mustprogress nounwind uwtable
define linkonce_odr noundef nonnull align 4 dereferenceable(4) ptr @_ZNKSt6vectorIiSaIiEEixEm(ptr noundef nonnull align 8 dereferenceable(24) %0, i64 noundef %1) #1 comdat align 2 {
  %3 = alloca ptr, align 8
  %4 = alloca i64, align 8
  store ptr %0, ptr %3, align 8, !tbaa !258
  store i64 %1, ptr %4, align 8, !tbaa !277
  %5 = load ptr, ptr %3, align 8
  %6 = getelementptr inbounds nuw %"struct.std::_Vector_base", ptr %5, i32 0, i32 0
  %7 = getelementptr inbounds nuw %"struct.std::_Vector_base<int, std::allocator<int>>::_Vector_impl_data", ptr %6, i32 0, i32 0
  %8 = load ptr, ptr %7, align 8, !tbaa !278
  %9 = load i64, ptr %4, align 8, !tbaa !277
  %10 = getelementptr inbounds nuw i32, ptr %8, i64 %9
  ret ptr %10
}

; Function Attrs: mustprogress nounwind uwtable
define linkonce_odr noundef nonnull align 8 dereferenceable(24) ptr @_ZNK3gmx16EnumerationArrayI23SimulationAtomGroupTypeSt6vectorIiSaIiEELS1_10EEixES1_(ptr noundef nonnull align 8 dereferenceable(240) %0, i32 noundef %1) #1 comdat align 2 {
  %3 = alloca ptr, align 8
  %4 = alloca i32, align 4
  store ptr %0, ptr %3, align 8, !tbaa !318
  store i32 %1, ptr %4, align 4, !tbaa !320
  %5 = load ptr, ptr %3, align 8
  %6 = getelementptr inbounds nuw %"struct.gmx::EnumerationArray.115", ptr %5, i32 0, i32 0
  %7 = load i32, ptr %4, align 4, !tbaa !320
  %8 = sext i32 %7 to i64
  %9 = getelementptr inbounds nuw [10 x %"class.std::vector"], ptr %6, i64 0, i64 %8
  ret ptr %9
}

; Function Attrs: mustprogress uwtable
define void @_ZN3gmx12EnergyOutput26printAnnealingTemperaturesEP8_IO_FILERK16SimulationGroupsRK9t_grpoptsRK14gmx_ekindata_t(ptr noundef %0, ptr noundef nonnull align 8 dereferenceable(504) %1, ptr noundef nonnull align 8 dereferenceable(108) %2, ptr noundef nonnull align 8 dereferenceable(212) %3) #0 align 2 {
  %5 = alloca ptr, align 8
  %6 = alloca ptr, align 8
  %7 = alloca ptr, align 8
  %8 = alloca ptr, align 8
  %9 = alloca i32, align 4
  store ptr %0, ptr %5, align 8, !tbaa !23
  store ptr %1, ptr %6, align 8, !tbaa !198
  store ptr %2, ptr %7, align 8, !tbaa !797
  store ptr %3, ptr %8, align 8, !tbaa !625
  %10 = load ptr, ptr %5, align 8, !tbaa !23
  %11 = icmp ne ptr %10, null
  br i1 %11, label %12, label %56

12:                                               ; preds = %4
  call void @llvm.lifetime.start.p0(i64 4, ptr %9) #17
  store i32 0, ptr %9, align 4, !tbaa !200
  br label %13

13:                                               ; preds = %50, %12
  %14 = load i32, ptr %9, align 4, !tbaa !200
  %15 = load ptr, ptr %7, align 8, !tbaa !797
  %16 = getelementptr inbounds nuw %struct.t_grpopts, ptr %15, i32 0, i32 0
  %17 = load i32, ptr %16, align 8, !tbaa !799
  %18 = icmp slt i32 %14, %17
  br i1 %18, label %20, label %19

19:                                               ; preds = %13
  call void @llvm.lifetime.end.p0(i64 4, ptr %9) #17
  br label %53

20:                                               ; preds = %13
  %21 = load ptr, ptr %7, align 8, !tbaa !797
  %22 = getelementptr inbounds nuw %struct.t_grpopts, ptr %21, i32 0, i32 8
  %23 = load ptr, ptr %22, align 8, !tbaa !800
  %24 = load i32, ptr %9, align 4, !tbaa !200
  %25 = sext i32 %24 to i64
  %26 = getelementptr inbounds i32, ptr %23, i64 %25
  %27 = load i32, ptr %26, align 4, !tbaa !801
  %28 = icmp ne i32 %27, 0
  br i1 %28, label %29, label %49

29:                                               ; preds = %20
  %30 = load ptr, ptr %5, align 8, !tbaa !23
  %31 = load ptr, ptr %6, align 8, !tbaa !198
  %32 = getelementptr inbounds nuw %struct.SimulationGroups, ptr %31, i32 0, i32 1
  %33 = load ptr, ptr %6, align 8, !tbaa !198
  %34 = getelementptr inbounds nuw %struct.SimulationGroups, ptr %33, i32 0, i32 0
  %35 = call noundef nonnull align 8 dereferenceable(24) ptr @_ZNK3gmx16EnumerationArrayI23SimulationAtomGroupTypeSt6vectorIiSaIiEELS1_10EEixES1_(ptr noundef nonnull align 8 dereferenceable(240) %34, i32 noundef 0)
  %36 = load i32, ptr %9, align 4, !tbaa !200
  %37 = sext i32 %36 to i64
  %38 = call noundef nonnull align 4 dereferenceable(4) ptr @_ZNKSt6vectorIiSaIiEEixEm(ptr noundef nonnull align 8 dereferenceable(24) %35, i64 noundef %37) #17
  %39 = load i32, ptr %38, align 4, !tbaa !200
  %40 = sext i32 %39 to i64
  %41 = call noundef nonnull align 8 dereferenceable(8) ptr @_ZNKSt6vectorIPPcSaIS1_EEixEm(ptr noundef nonnull align 8 dereferenceable(24) %32, i64 noundef %40) #17
  %42 = load ptr, ptr %41, align 8, !tbaa !230
  %43 = load ptr, ptr %42, align 8, !tbaa !8
  %44 = load ptr, ptr %8, align 8, !tbaa !625
  %45 = load i32, ptr %9, align 4, !tbaa !200
  %46 = call noundef float @_ZNK14gmx_ekindata_t27currentReferenceTemperatureEi(ptr noundef nonnull align 8 dereferenceable(212) %44, i32 noundef %45)
  %47 = fpext float %46 to double
  %48 = call i32 (ptr, ptr, ...) @fprintf(ptr noundef %30, ptr noundef @.str.121, ptr noundef %43, double noundef %47) #17
  br label %49

49:                                               ; preds = %29, %20
  br label %50

50:                                               ; preds = %49
  %51 = load i32, ptr %9, align 4, !tbaa !200
  %52 = add nsw i32 %51, 1
  store i32 %52, ptr %9, align 4, !tbaa !200
  br label %13, !llvm.loop !803

53:                                               ; preds = %19
  %54 = load ptr, ptr %5, align 8, !tbaa !23
  %55 = call i32 (ptr, ptr, ...) @fprintf(ptr noundef %54, ptr noundef @.str.112) #17
  br label %56

56:                                               ; preds = %53, %4
  ret void
}