; Function Attrs: mustprogress nofree nounwind uwtable
define void @_ZN3gmx12EnergyOutput26printAnnealingTemperaturesEP8_IO_FILERK16SimulationGroupsRK9t_grpoptsRK14gmx_ekindata_t(ptr noundef %0, ptr noundef nonnull readonly align 8 captures(none) dereferenceable(504) %1, ptr noundef nonnull readonly align 8 captures(none) dereferenceable(108) %2, ptr noundef nonnull readonly align 8 captures(none) dereferenceable(212) %3) local_unnamed_addr #17 align 2 {
  %.not = icmp eq ptr %0, null
  br i1 %.not, label %32, label %.preheader

.preheader:                                       ; preds = %4
  %5 = load i32, ptr %2, align 8, !tbaa !432
  %6 = icmp sgt i32 %5, 0
  br i1 %6, label %.lr.ph, label %._crit_edge

.lr.ph:                                           ; preds = %.preheader
  %7 = getelementptr inbounds nuw i8, ptr %2, i64 40
  %8 = getelementptr inbounds nuw i8, ptr %1, i64 240
  br label %9

._crit_edge:                                      ; preds = %28, %.preheader
  %fputc = tail call i32 @fputc(i32 10, ptr nonnull %0)
  br label %32

9:                                                ; preds = %.lr.ph, %28
  %10 = phi i32 [ %5, %.lr.ph ], [ %29, %28 ]
  %indvars.iv = phi i64 [ 0, %.lr.ph ], [ %indvars.iv.next, %28 ]
  %11 = load ptr, ptr %7, align 8, !tbaa !433
  %12 = getelementptr inbounds nuw i32, ptr %11, i64 %indvars.iv
  %13 = load i32, ptr %12, align 4, !tbaa !434
  %.not13 = icmp eq i32 %13, 0
  br i1 %.not13, label %28, label %14

14:                                               ; preds = %9
  %15 = load ptr, ptr %1, align 8, !tbaa !157
  %16 = getelementptr inbounds nuw i32, ptr %15, i64 %indvars.iv
  %17 = load i32, ptr %16, align 4, !tbaa !158
  %18 = sext i32 %17 to i64
  %19 = load ptr, ptr %8, align 8, !tbaa !227
  %20 = getelementptr inbounds nuw ptr, ptr %19, i64 %18
  %21 = load ptr, ptr %20, align 8, !tbaa !231
  %22 = load ptr, ptr %21, align 8, !tbaa !4
  %23 = load ptr, ptr %3, align 8, !tbaa !248
  %24 = getelementptr inbounds nuw float, ptr %23, i64 %indvars.iv
  %25 = load float, ptr %24, align 4, !tbaa !201
  %26 = fpext float %25 to double
  %27 = tail call i32 (ptr, ptr, ...) @fprintf(ptr noundef nonnull %0, ptr noundef nonnull @.str.121, ptr noundef %22, double noundef %26) #23
  %.pre = load i32, ptr %2, align 8, !tbaa !432
  br label %28

28:                                               ; preds = %9, %14
  %29 = phi i32 [ %10, %9 ], [ %.pre, %14 ]
  %indvars.iv.next = add nuw nsw i64 %indvars.iv, 1
  %30 = sext i32 %29 to i64
  %31 = icmp slt i64 %indvars.iv.next, %30
  br i1 %31, label %9, label %._crit_edge, !llvm.loop !436

32:                                               ; preds = %._crit_edge, %4
  ret void
}